; Function Attrs: nounwind uwtable
define i32 @lv_anim_path_custom_bezier3(ptr nocapture noundef readonly %0) local_unnamed_addr #0 {
  %2 = getelementptr inbounds nuw i8, ptr %0, i64 108
  %3 = load i16, ptr %2, align 2, !tbaa !49
  %4 = sext i16 %3 to i32
  %5 = getelementptr inbounds nuw i8, ptr %0, i64 110
  %6 = load i16, ptr %5, align 2, !tbaa !52
  %7 = sext i16 %6 to i32
  %8 = getelementptr inbounds nuw i8, ptr %0, i64 112
  %9 = load i16, ptr %8, align 2, !tbaa !53
  %10 = sext i16 %9 to i32
  %11 = getelementptr inbounds nuw i8, ptr %0, i64 114
  %12 = load i16, ptr %11, align 2, !tbaa !54
  %13 = sext i16 %12 to i32
  %14 = getelementptr inbounds nuw i8, ptr %0, i64 88
  %15 = load i32, ptr %14, align 8, !tbaa !25
  %16 = getelementptr inbounds nuw i8, ptr %0, i64 84
  %17 = load i32, ptr %16, align 4, !tbaa !30
  %18 = tail call i32 @lv_map(i32 noundef %15, i32 noundef 0, i32 noundef %17, i32 noundef 0, i32 noundef 1024) #8
  %19 = tail call i32 @lv_cubic_bezier(i32 noundef %18, i32 noundef range(i32 -32768, 32768) %4, i32 noundef range(i32 -32768, 32768) %7, i32 noundef range(i32 -32768, 32768) %10, i32 noundef range(i32 -32768, 32768) %13) #8
  %20 = getelementptr inbounds nuw i8, ptr %0, i64 80
  %21 = load i32, ptr %20, align 8, !tbaa !28
  %22 = getelementptr inbounds nuw i8, ptr %0, i64 72
  %23 = load i32, ptr %22, align 8, !tbaa !27
  %24 = sub nsw i32 %21, %23
  %25 = mul nsw i32 %24, %19
  %26 = ashr i32 %25, 10
  %27 = add nsw i32 %26, %23
  ret i32 %27
}